target datalayout = "e-m:e-p270:32:32-p271:32:32-p272:64:64-i64:64-i128:128-f80:128-n8:16:32:64-S128"
target triple = "x86_64-pc-linux-gnu"

%struct.If_Obj_t_ = type { i32, i32, i32, i32, i32, i32, ptr, ptr, ptr, float, float, float, %union.anon, ptr, %struct.If_Cut_t_ }
%union.anon = type { ptr }
%struct.If_Cut_t_ = type <{ float, float, float, float, i32, i32, i32, i64, [0 x i32] }>

; Function Attrs: inlinehint nounwind uwtable
define internal ptr @If_ObjFanin1(ptr noundef %0) #3 {
  %2 = alloca ptr, align 8
  store ptr %0, ptr %2, align 8, !tbaa !131
  %3 = load ptr, ptr %2, align 8, !tbaa !131
  %4 = getelementptr inbounds nuw %struct.If_Obj_t_, ptr %3, i32 0, i32 7
  %5 = load ptr, ptr %4, align 8, !tbaa !138
  ret ptr %5
}

; Function Attrs: inlinehint nounwind uwtable
define internal ptr @If_ObjFanin0(ptr noundef %0) #3 {
  %2 = alloca ptr, align 8
  store ptr %0, ptr %2, align 8, !tbaa !131
  %3 = load ptr, ptr %2, align 8, !tbaa !131
  %4 = getelementptr inbounds nuw %struct.If_Obj_t_, ptr %3, i32 0, i32 6
  %5 = load ptr, ptr %4, align 8, !tbaa !137
  ret ptr %5
}

; Function Attrs: nounwind uwtable
define void @If_ManCheckChoices_rec(ptr noundef %0, ptr noundef %1) #0 {
  %3 = alloca ptr, align 8
  %4 = alloca ptr, align 8
  store ptr %0, ptr %3, align 8, !tbaa !129
  store ptr %1, ptr %4, align 8, !tbaa !131
  %5 = load ptr, ptr %4, align 8, !tbaa !131
  %6 = icmp ne ptr %5, null
  br i1 %6, label %7, label %18

7:                                                ; preds = %2
  %8 = load ptr, ptr %4, align 8, !tbaa !131
  %9 = load i32, ptr %8, align 8
  %10 = and i32 %9, 15
  %11 = icmp ne i32 %10, 4
  br i1 %11, label %18, label %12

12:                                               ; preds = %7
  %13 = load ptr, ptr %4, align 8, !tbaa !131
  %14 = load i32, ptr %13, align 8
  %15 = lshr i32 %14, 11
  %16 = and i32 %15, 1
  %17 = icmp ne i32 %16, 0
  br i1 %17, label %18, label %19

18:                                               ; preds = %12, %7, %2
  br label %34

19:                                               ; preds = %12
  %20 = load ptr, ptr %4, align 8, !tbaa !131
  %21 = load i32, ptr %20, align 8
  %22 = and i32 %21, -2049
  %23 = or i32 %22, 2048
  store i32 %23, ptr %20, align 8
  %24 = load ptr, ptr %3, align 8, !tbaa !129
  %25 = load ptr, ptr %4, align 8, !tbaa !131
  %26 = call ptr @If_ObjFanin0(ptr noundef %25)
  call void @If_ManCheckChoices_rec(ptr noundef %24, ptr noundef %26)
  %27 = load ptr, ptr %3, align 8, !tbaa !129
  %28 = load ptr, ptr %4, align 8, !tbaa !131
  %29 = call ptr @If_ObjFanin1(ptr noundef %28)
  call void @If_ManCheckChoices_rec(ptr noundef %27, ptr noundef %29)
  %30 = load ptr, ptr %3, align 8, !tbaa !129
  %31 = load ptr, ptr %4, align 8, !tbaa !131
  %32 = getelementptr inbounds nuw %struct.If_Obj_t_, ptr %31, i32 0, i32 8
  %33 = load ptr, ptr %32, align 8, !tbaa !133
  call void @If_ManCheckChoices_rec(ptr noundef %30, ptr noundef %33)
  br label %34

34:                                               ; preds = %19, %18
  ret void
}