; Function Attrs: nofree nosync nounwind memory(readwrite, inaccessiblemem: none) uwtable
define void @If_ManCheckChoices_rec(ptr noundef %0, ptr noundef %1) local_unnamed_addr #9 {
  %.not14 = icmp eq ptr %1, null
  br i1 %.not14, label %tailrecurse._crit_edge, label %.lr.ph

.lr.ph:                                           ; preds = %2, %tailrecurse
  %.tr1315 = phi ptr [ %9, %tailrecurse ], [ %1, %2 ]
  %3 = load i32, ptr %.tr1315, align 8
  %4 = and i32 %3, 2063
  %or.cond = icmp eq i32 %4, 4
  br i1 %or.cond, label %tailrecurse, label %tailrecurse._crit_edge

tailrecurse:                                      ; preds = %.lr.ph
  %5 = or disjoint i32 %3, 2048
  store i32 %5, ptr %.tr1315, align 8
  %6 = getelementptr i8, ptr %.tr1315, i64 24
  %.val = load ptr, ptr %6, align 8, !tbaa !110
  tail call void @If_ManCheckChoices_rec(ptr noundef %0, ptr noundef %.val)
  %7 = getelementptr i8, ptr %.tr1315, i64 32
  %.val12 = load ptr, ptr %7, align 8, !tbaa !115
  tail call void @If_ManCheckChoices_rec(ptr noundef %0, ptr noundef %.val12)
  %8 = getelementptr inbounds nuw i8, ptr %.tr1315, i64 40
  %9 = load ptr, ptr %8, align 8, !tbaa !116
  %.not = icmp eq ptr %9, null
  br i1 %.not, label %tailrecurse._crit_edge, label %.lr.ph

tailrecurse._crit_edge:                           ; preds = %.lr.ph, %tailrecurse, %2
  ret void
}